target datalayout = "e-m:e-p270:32:32-p271:32:32-p272:64:64-i64:64-i128:128-f80:128-n8:16:32:64-S128"
target triple = "x86_64-pc-linux-gnu"

@Gia_Sim2HashKey.s_Primes = internal global [16 x i32] [i32 1291, i32 1699, i32 1999, i32 2357, i32 2953, i32 3313, i32 3907, i32 4177, i32 4831, i32 5147, i32 5647, i32 6343, i32 6899, i32 7103, i32 7873, i32 8147], align 16

; Function Attrs: nounwind uwtable
define i32 @Gia_Sim2HashKey(ptr noundef %0, i32 noundef %1, i32 noundef %2) #0 {
  %4 = alloca ptr, align 8
  %5 = alloca i32, align 4
  %6 = alloca i32, align 4
  %7 = alloca i32, align 4
  %8 = alloca i32, align 4
  store ptr %0, ptr %4, align 8, !tbaa !59
  store i32 %1, ptr %5, align 4, !tbaa !30
  store i32 %2, ptr %6, align 4, !tbaa !30
  call void @llvm.lifetime.start.p0(i64 4, ptr %7) #11
  store i32 0, ptr %7, align 4, !tbaa !30
  call void @llvm.lifetime.start.p0(i64 4, ptr %8) #11
  %9 = load ptr, ptr %4, align 8, !tbaa !59
  %10 = getelementptr inbounds i32, ptr %9, i64 0
  %11 = load i32, ptr %10, align 4, !tbaa !30
  %12 = and i32 %11, 1
  %13 = icmp ne i32 %12, 0
  br i1 %13, label %14, label %38

14:                                               ; preds = %3
  store i32 0, ptr %8, align 4, !tbaa !30
  br label %15

15:                                               ; preds = %34, %14
  %16 = load i32, ptr %8, align 4, !tbaa !30
  %17 = load i32, ptr %5, align 4, !tbaa !30
  %18 = icmp slt i32 %16, %17
  br i1 %18, label %19, label %37

19:                                               ; preds = %15
  %20 = load ptr, ptr %4, align 8, !tbaa !59
  %21 = load i32, ptr %8, align 4, !tbaa !30
  %22 = sext i32 %21 to i64
  %23 = getelementptr inbounds i32, ptr %20, i64 %22
  %24 = load i32, ptr %23, align 4, !tbaa !30
  %25 = xor i32 %24, -1
  %26 = load i32, ptr %8, align 4, !tbaa !30
  %27 = and i32 %26, 15
  %28 = sext i32 %27 to i64
  %29 = getelementptr inbounds [16 x i32], ptr @Gia_Sim2HashKey.s_Primes, i64 0, i64 %28
  %30 = load i32, ptr %29, align 4, !tbaa !30
  %31 = mul i32 %25, %30
  %32 = load i32, ptr %7, align 4, !tbaa !30
  %33 = xor i32 %32, %31
  store i32 %33, ptr %7, align 4, !tbaa !30
  br label %34

34:                                               ; preds = %19
  %35 = load i32, ptr %8, align 4, !tbaa !30
  %36 = add nsw i32 %35, 1
  store i32 %36, ptr %8, align 4, !tbaa !30
  br label %15, !llvm.loop !68

37:                                               ; preds = %15
  br label %61

38:                                               ; preds = %3
  store i32 0, ptr %8, align 4, !tbaa !30
  br label %39

39:                                               ; preds = %57, %38
  %40 = load i32, ptr %8, align 4, !tbaa !30
  %41 = load i32, ptr %5, align 4, !tbaa !30
  %42 = icmp slt i32 %40, %41
  br i1 %42, label %43, label %60

43:                                               ; preds = %39
  %44 = load ptr, ptr %4, align 8, !tbaa !59
  %45 = load i32, ptr %8, align 4, !tbaa !30
  %46 = sext i32 %45 to i64
  %47 = getelementptr inbounds i32, ptr %44, i64 %46
  %48 = load i32, ptr %47, align 4, !tbaa !30
  %49 = load i32, ptr %8, align 4, !tbaa !30
  %50 = and i32 %49, 15
  %51 = sext i32 %50 to i64
  %52 = getelementptr inbounds [16 x i32], ptr @Gia_Sim2HashKey.s_Primes, i64 0, i64 %51
  %53 = load i32, ptr %52, align 4, !tbaa !30
  %54 = mul i32 %48, %53
  %55 = load i32, ptr %7, align 4, !tbaa !30
  %56 = xor i32 %55, %54
  store i32 %56, ptr %7, align 4, !tbaa !30
  br label %57

57:                                               ; preds = %43
  %58 = load i32, ptr %8, align 4, !tbaa !30
  %59 = add nsw i32 %58, 1
  store i32 %59, ptr %8, align 4, !tbaa !30
  br label %39, !llvm.loop !69

60:                                               ; preds = %39
  br label %61

61:                                               ; preds = %60, %37
  %62 = load i32, ptr %7, align 4, !tbaa !30
  %63 = load i32, ptr %6, align 4, !tbaa !30
  %64 = urem i32 %62, %63
  call void @llvm.lifetime.end.p0(i64 4, ptr %8) #11
  call void @llvm.lifetime.end.p0(i64 4, ptr %7) #11
  ret i32 %64
}