; Function Attrs: nofree norecurse nosync nounwind memory(argmem: read) uwtable
define range(i32 0, -1) i32 @Gia_Sim2HashKey(ptr noundef readonly captures(none) %0, i32 noundef %1, i32 noundef %2) local_unnamed_addr #8 {
  %4 = load i32, ptr %0, align 4, !tbaa !48
  %5 = and i32 %4, 1
  %.not = icmp eq i32 %5, 0
  %6 = icmp sgt i32 %1, 0
  br i1 %.not, label %.preheader, label %.preheader18

.preheader18:                                     ; preds = %3
  br i1 %6, label %.lr.ph.preheader, label %.loopexit

.lr.ph.preheader:                                 ; preds = %.preheader18
  %wide.trip.count = zext nneg i32 %1 to i64
  br label %.lr.ph

.preheader:                                       ; preds = %3
  br i1 %6, label %.lr.ph24.preheader, label %.loopexit

.lr.ph24.preheader:                               ; preds = %.preheader
  %wide.trip.count32 = zext nneg i32 %1 to i64
  br label %.lr.ph24

.lr.ph:                                           ; preds = %.lr.ph.preheader, %.lr.ph
  %indvars.iv = phi i64 [ 0, %.lr.ph.preheader ], [ %indvars.iv.next, %.lr.ph ]
  %.01620 = phi i32 [ 0, %.lr.ph.preheader ], [ %14, %.lr.ph ]
  %7 = getelementptr inbounds nuw i32, ptr %0, i64 %indvars.iv
  %8 = load i32, ptr %7, align 4, !tbaa !48
  %9 = xor i32 %8, -1
  %10 = and i64 %indvars.iv, 15
  %11 = getelementptr inbounds nuw [16 x i32], ptr @Gia_Sim2HashKey.s_Primes, i64 0, i64 %10
  %12 = load i32, ptr %11, align 4, !tbaa !48
  %13 = mul i32 %12, %9
  %14 = xor i32 %13, %.01620
  %indvars.iv.next = add nuw nsw i64 %indvars.iv, 1
  %exitcond.not = icmp eq i64 %indvars.iv.next, %wide.trip.count
  br i1 %exitcond.not, label %.loopexit, label %.lr.ph, !llvm.loop !62

.lr.ph24:                                         ; preds = %.lr.ph24.preheader, %.lr.ph24
  %indvars.iv29 = phi i64 [ 0, %.lr.ph24.preheader ], [ %indvars.iv.next30, %.lr.ph24 ]
  %.222 = phi i32 [ 0, %.lr.ph24.preheader ], [ %21, %.lr.ph24 ]
  %15 = getelementptr inbounds nuw i32, ptr %0, i64 %indvars.iv29
  %16 = load i32, ptr %15, align 4, !tbaa !48
  %17 = and i64 %indvars.iv29, 15
  %18 = getelementptr inbounds nuw [16 x i32], ptr @Gia_Sim2HashKey.s_Primes, i64 0, i64 %17
  %19 = load i32, ptr %18, align 4, !tbaa !48
  %20 = mul i32 %19, %16
  %21 = xor i32 %20, %.222
  %indvars.iv.next30 = add nuw nsw i64 %indvars.iv29, 1
  %exitcond33.not = icmp eq i64 %indvars.iv.next30, %wide.trip.count32
  br i1 %exitcond33.not, label %.loopexit, label %.lr.ph24, !llvm.loop !63

.loopexit:                                        ; preds = %.lr.ph, %.lr.ph24, %.preheader18, %.preheader
  %.117 = phi i32 [ 0, %.preheader ], [ 0, %.preheader18 ], [ %21, %.lr.ph24 ], [ %14, %.lr.ph ]
  %22 = urem i32 %.117, %2
  ret i32 %22
}